; Function Attrs: mustprogress nounwind willreturn memory(readwrite, argmem: none) uwtable
define noalias noundef ptr @st__init_table(ptr noundef %0, ptr noundef %1) local_unnamed_addr #0 {
  %3 = tail call noalias dereferenceable_or_null(48) ptr @malloc(i64 noundef 48) #13
  %4 = icmp eq ptr %3, null
  br i1 %4, label %st__init_table_with_params.exit, label %5

5:                                                ; preds = %2
  store ptr %0, ptr %3, align 8, !tbaa !3
  %6 = getelementptr inbounds nuw i8, ptr %3, i64 8
  store ptr %1, ptr %6, align 8, !tbaa !11
  %7 = getelementptr inbounds nuw i8, ptr %3, i64 20
  store i32 0, ptr %7, align 4, !tbaa !12
  %8 = getelementptr inbounds nuw i8, ptr %3, i64 24
  store i32 5, ptr %8, align 8, !tbaa !13
  %9 = getelementptr inbounds nuw i8, ptr %3, i64 32
  store double 2.000000e+00, ptr %9, align 8, !tbaa !14
  %10 = getelementptr inbounds nuw i8, ptr %3, i64 28
  store i32 0, ptr %10, align 4, !tbaa !15
  %11 = getelementptr inbounds nuw i8, ptr %3, i64 16
  store i32 11, ptr %11, align 8, !tbaa !16
  %calloc.i = tail call dereferenceable_or_null(88) ptr @calloc(i64 1, i64 88)
  %12 = getelementptr inbounds nuw i8, ptr %3, i64 40
  store ptr %calloc.i, ptr %12, align 8, !tbaa !17
  %13 = icmp eq ptr %calloc.i, null
  br i1 %13, label %14, label %st__init_table_with_params.exit

14:                                               ; preds = %5
  tail call void @free(ptr noundef nonnull %3) #14
  br label %st__init_table_with_params.exit

st__init_table_with_params.exit:                  ; preds = %2, %5, %14
  %.026.i = phi ptr [ null, %14 ], [ null, %2 ], [ %3, %5 ]
  ret ptr %.026.i
}